; Function Attrs: mustprogress nounwind uwtable
define hidden void @_ZN13G1CMMarkStack22add_chunk_to_free_listEPNS_19TaskQueueEntryChunkE(ptr noundef nonnull align 8 dereferenceable(688) %0, ptr noundef %1) local_unnamed_addr #0 align 2 {
  %3 = load ptr, ptr @MarkStackFreeList_lock, align 8
  %.not.i.i = icmp eq ptr %3, null
  br i1 %.not.i.i, label %_ZN11MutexLockerC2EP5MutexNS0_18SafepointCheckFlagE.exit.thread, label %6

_ZN11MutexLockerC2EP5MutexNS0_18SafepointCheckFlagE.exit.thread: ; preds = %2
  %4 = getelementptr inbounds i8, ptr %0, i64 432
  %5 = load volatile ptr, ptr %4, align 8
  store ptr %5, ptr %1, align 8
  store volatile ptr %1, ptr %4, align 8
  br label %_ZN11MutexLockerD2Ev.exit

6:                                                ; preds = %2
  tail call void @_ZN5Mutex28lock_without_safepoint_checkEv(ptr noundef nonnull align 8 dereferenceable(104) %3) #22
  %7 = getelementptr inbounds i8, ptr %0, i64 432
  %8 = load volatile ptr, ptr %7, align 8
  store ptr %8, ptr %1, align 8
  store volatile ptr %1, ptr %7, align 8
  tail call void @_ZN5Mutex6unlockEv(ptr noundef nonnull align 8 dereferenceable(104) %3) #22
  br label %_ZN11MutexLockerD2Ev.exit

_ZN11MutexLockerD2Ev.exit:                        ; preds = %_ZN11MutexLockerC2EP5MutexNS0_18SafepointCheckFlagE.exit.thread, %6
  ret void
}